; Function Attrs: mustprogress nounwind uwtable
define void @_ZN8proxygen21RequestHandlerAdaptor19sendChunkTerminatorEv(ptr nocapture noundef nonnull readonly align 8 dereferenceable(36) %this) unnamed_addr #4 align 2 personality ptr @__gxx_personality_v0 {
entry:
  %txn_ = getelementptr inbounds i8, ptr %this, i64 24
  %0 = load ptr, ptr %txn_, align 8
  %vtable = load ptr, ptr %0, align 8
  %vfn = getelementptr inbounds i8, ptr %vtable, i64 128
  %1 = load ptr, ptr %vfn, align 8
  invoke void %1(ptr noundef nonnull align 8 dereferenceable(912) %0)
          to label %invoke.cont unwind label %terminate.lpad

invoke.cont:                                      ; preds = %entry
  ret void

terminate.lpad:                                   ; preds = %entry
  %2 = landingpad { ptr, i32 }
          catch ptr null
  %3 = extractvalue { ptr, i32 } %2, 0
  tail call void @__clang_call_terminate(ptr %3) #22
  unreachable
}